; Function Attrs: nounwind uwtable
define hidden range(i64 -9223372036854775807, -9223372036854775808) i64 @Curl_conn_shutdown_timeleft(ptr noundef readonly captures(none) %0, ptr noundef readonly %1) local_unnamed_addr #0 {
  %3 = alloca %struct.curltime, align 8
  call void @llvm.lifetime.start.p0(i64 16, ptr nonnull %3) #10
  %4 = getelementptr inbounds nuw i8, ptr %0, i64 656
  %5 = load i32, ptr %4, align 8, !tbaa !81
  %.not30 = icmp eq i32 %5, 0
  br i1 %.not30, label %._crit_edge, label %.lr.ph

.lr.ph:                                           ; preds = %2
  %6 = getelementptr inbounds nuw i8, ptr %0, i64 624
  %.sroa.4.0..sroa_idx = getelementptr inbounds nuw i8, ptr %3, i64 8
  %.010.sroa.gep13.i = getelementptr inbounds nuw i8, ptr %3, i64 8
  br label %7

7:                                                ; preds = %.lr.ph, %Curl_shutdown_timeleft.exit.thread
  %8 = phi i1 [ true, %.lr.ph ], [ false, %Curl_shutdown_timeleft.exit.thread ]
  %indvars.iv = phi i64 [ 0, %.lr.ph ], [ 1, %Curl_shutdown_timeleft.exit.thread ]
  %.029 = phi ptr [ %1, %.lr.ph ], [ %.1, %Curl_shutdown_timeleft.exit.thread ]
  %.01428 = phi i64 [ 0, %.lr.ph ], [ %.115, %Curl_shutdown_timeleft.exit.thread ]
  %9 = getelementptr inbounds nuw [2 x %struct.curltime], ptr %6, i64 0, i64 %indvars.iv
  %10 = load i64, ptr %9, align 8, !tbaa !90
  %.not = icmp eq i64 %10, 0
  br i1 %.not, label %Curl_shutdown_timeleft.exit.thread, label %11

11:                                               ; preds = %7
  %.not18 = icmp eq ptr %.029, null
  br i1 %.not18, label %12, label %.thread

.thread:                                          ; preds = %11
  %.010.sroa.gep13.i34 = getelementptr inbounds nuw i8, ptr %.029, i64 8
  br label %16

12:                                               ; preds = %11
  %13 = call { i64, i32 } @Curl_now() #10
  %14 = extractvalue { i64, i32 } %13, 0
  %15 = extractvalue { i64, i32 } %13, 1
  store i64 %14, ptr %3, align 8, !tbaa !75
  store i32 %15, ptr %.sroa.4.0..sroa_idx, align 8, !tbaa !76
  %.pre = load i64, ptr %9, align 8, !tbaa !90
  %.not.i = icmp eq i64 %.pre, 0
  br i1 %.not.i, label %Curl_shutdown_timeleft.exit.thread, label %16

16:                                               ; preds = %.thread, %12
  %.010.sroa.gep13.i36 = phi ptr [ %.010.sroa.gep13.i34, %.thread ], [ %.010.sroa.gep13.i, %12 ]
  %.235 = phi ptr [ %.029, %.thread ], [ %3, %12 ]
  %17 = phi i64 [ %10, %.thread ], [ %.pre, %12 ]
  %18 = load i32, ptr %4, align 8, !tbaa !81
  %.not16.i = icmp eq i32 %18, 0
  br i1 %.not16.i, label %Curl_shutdown_timeleft.exit.thread, label %19

19:                                               ; preds = %16
  %.pre19.i = load i64, ptr %.235, align 8
  %.pre20.i = load i32, ptr %.010.sroa.gep13.i36, align 8
  %20 = zext i32 %18 to i64
  %21 = getelementptr inbounds nuw i8, ptr %9, i64 8
  %22 = load i32, ptr %21, align 8
  %23 = call i64 @Curl_timediff(i64 %.pre19.i, i32 %.pre20.i, i64 %17, i32 %22) #10
  %.not18.i = icmp eq i64 %23, %20
  br i1 %.not18.i, label %Curl_shutdown_timeleft.exit.thread23, label %Curl_shutdown_timeleft.exit

Curl_shutdown_timeleft.exit:                      ; preds = %19
  %24 = sub nsw i64 %20, %23
  %.not19 = icmp eq i64 %24, 0
  br i1 %.not19, label %Curl_shutdown_timeleft.exit.thread, label %Curl_shutdown_timeleft.exit.thread23

Curl_shutdown_timeleft.exit.thread23:             ; preds = %19, %Curl_shutdown_timeleft.exit
  %.0.i26 = phi i64 [ %24, %Curl_shutdown_timeleft.exit ], [ -1, %19 ]
  %.not20 = icmp eq i64 %.01428, 0
  %25 = call i64 @llvm.smin.i64(i64 %.0.i26, i64 %.01428)
  %spec.select = select i1 %.not20, i64 %.0.i26, i64 %25
  br label %Curl_shutdown_timeleft.exit.thread

Curl_shutdown_timeleft.exit.thread:               ; preds = %12, %16, %Curl_shutdown_timeleft.exit.thread23, %Curl_shutdown_timeleft.exit, %7
  %.115 = phi i64 [ %.01428, %Curl_shutdown_timeleft.exit ], [ %.01428, %7 ], [ %spec.select, %Curl_shutdown_timeleft.exit.thread23 ], [ %.01428, %16 ], [ %.01428, %12 ]
  %.1 = phi ptr [ %.235, %Curl_shutdown_timeleft.exit ], [ %.029, %7 ], [ %.235, %Curl_shutdown_timeleft.exit.thread23 ], [ %.235, %16 ], [ %3, %12 ]
  %26 = load i32, ptr %4, align 8, !tbaa !81
  %27 = icmp ne i32 %26, 0
  %28 = and i1 %27, %8
  br i1 %28, label %7, label %._crit_edge, !llvm.loop !91

._crit_edge:                                      ; preds = %Curl_shutdown_timeleft.exit.thread, %2
  %.014.lcssa = phi i64 [ 0, %2 ], [ %.115, %Curl_shutdown_timeleft.exit.thread ]
  call void @llvm.lifetime.end.p0(i64 16, ptr nonnull %3) #10
  ret i64 %.014.lcssa
}